
build/output.elf:     file format elf32-littlearm


Disassembly of section .init:

00008000 <_start>:
    8000:	e3a0d902 	mov	sp, #32768	; 0x8000
    8004:	ea000012 	b	8054 <_main>

Disassembly of section .text:

00008008 <mailbox_write>:
    8008:	e59f1040 	ldr	r1, [pc, #64]	; 8050 <right_mail$+0x24>

0000800c <wait$>:
    800c:	e5912038 	ldr	r2, [r1, #56]	; 0x38
    8010:	e3120102 	tst	r2, #-2147483648	; 0x80000000
    8014:	1afffffc 	bne	800c <wait$>
    8018:	e5810020 	str	r0, [r1, #32]
    801c:	e1a0f00e 	mov	pc, lr

00008020 <mailbox_read>:
    8020:	e52de004 	push	{lr}		; (str lr, [sp, #-4]!)
    8024:	e1a01000 	mov	r1, r0
    8028:	e59f0020 	ldr	r0, [pc, #32]	; 8050 <right_mail$+0x24>

0000802c <right_mail$>:
    802c:	e5902018 	ldr	r2, [r0, #24]
    8030:	e3120101 	tst	r2, #1073741824	; 0x40000000
    8034:	1afffffc 	bne	802c <right_mail$>
    8038:	e5902000 	ldr	r2, [r0]
    803c:	e202300f 	and	r3, r2, #15
    8040:	e1330001 	teq	r3, r1
    8044:	1afffff8 	bne	802c <right_mail$>
    8048:	e3c2000f 	bic	r0, r2, #15
    804c:	e49df004 	pop	{pc}		; (ldr pc, [sp], #4)
    8050:	3f00b880 	.word	0x3f00b880

00008054 <_main>:
    8054:	e3a00001 	mov	r0, #1
    8058:	eb0000b8 	bl	8340 <set_led_state>
    805c:	e59f02b4 	ldr	r0, [pc, #692]	; 8318 <_main+0x2c4>
    8060:	eb0000ae 	bl	8320 <delay>
    8064:	e3a00000 	mov	r0, #0
    8068:	eb0000b4 	bl	8340 <set_led_state>
    806c:	e59f02a4 	ldr	r0, [pc, #676]	; 8318 <_main+0x2c4>
    8070:	eb0000aa 	bl	8320 <delay>
    8074:	e3a00001 	mov	r0, #1
    8078:	eb0000b0 	bl	8340 <set_led_state>
    807c:	e59f0294 	ldr	r0, [pc, #660]	; 8318 <_main+0x2c4>
    8080:	eb0000a6 	bl	8320 <delay>
    8084:	e3a00000 	mov	r0, #0
    8088:	eb0000ac 	bl	8340 <set_led_state>
    808c:	e59f0284 	ldr	r0, [pc, #644]	; 8318 <_main+0x2c4>
    8090:	eb0000a2 	bl	8320 <delay>
    8094:	e3a00001 	mov	r0, #1
    8098:	eb0000a8 	bl	8340 <set_led_state>
    809c:	e59f0274 	ldr	r0, [pc, #628]	; 8318 <_main+0x2c4>
    80a0:	eb00009e 	bl	8320 <delay>
    80a4:	e3a00000 	mov	r0, #0
    80a8:	eb0000a4 	bl	8340 <set_led_state>
    80ac:	e59f0264 	ldr	r0, [pc, #612]	; 8318 <_main+0x2c4>
    80b0:	eb00009a 	bl	8320 <delay>
    80b4:	e3a00001 	mov	r0, #1
    80b8:	eb0000a0 	bl	8340 <set_led_state>
    80bc:	e59f0254 	ldr	r0, [pc, #596]	; 8318 <_main+0x2c4>
    80c0:	eb000096 	bl	8320 <delay>
    80c4:	e3a00000 	mov	r0, #0
    80c8:	eb00009c 	bl	8340 <set_led_state>
    80cc:	e59f0248 	ldr	r0, [pc, #584]	; 831c <_main+0x2c8>
    80d0:	eb000092 	bl	8320 <delay>
    80d4:	e3a00001 	mov	r0, #1
    80d8:	eb000098 	bl	8340 <set_led_state>
    80dc:	e59f0234 	ldr	r0, [pc, #564]	; 8318 <_main+0x2c4>
    80e0:	eb00008e 	bl	8320 <delay>
    80e4:	e3a00000 	mov	r0, #0
    80e8:	eb000094 	bl	8340 <set_led_state>
    80ec:	e59f0224 	ldr	r0, [pc, #548]	; 8318 <_main+0x2c4>
    80f0:	eb00008a 	bl	8320 <delay>
    80f4:	e3a00001 	mov	r0, #1
    80f8:	eb000090 	bl	8340 <set_led_state>
    80fc:	e59f0214 	ldr	r0, [pc, #532]	; 8318 <_main+0x2c4>
    8100:	eb000086 	bl	8320 <delay>
    8104:	e3a00000 	mov	r0, #0
    8108:	eb00008c 	bl	8340 <set_led_state>
    810c:	e59f0204 	ldr	r0, [pc, #516]	; 8318 <_main+0x2c4>
    8110:	eb000082 	bl	8320 <delay>
    8114:	e3a00001 	mov	r0, #1
    8118:	eb000088 	bl	8340 <set_led_state>
    811c:	e59f01f4 	ldr	r0, [pc, #500]	; 8318 <_main+0x2c4>
    8120:	eb00007e 	bl	8320 <delay>
    8124:	e3a00000 	mov	r0, #0
    8128:	eb000084 	bl	8340 <set_led_state>
    812c:	e59f01e4 	ldr	r0, [pc, #484]	; 8318 <_main+0x2c4>
    8130:	eb00007a 	bl	8320 <delay>
    8134:	e3a00001 	mov	r0, #1
    8138:	eb000080 	bl	8340 <set_led_state>
    813c:	e59f01d4 	ldr	r0, [pc, #468]	; 8318 <_main+0x2c4>
    8140:	eb000076 	bl	8320 <delay>
    8144:	e3a00000 	mov	r0, #0
    8148:	eb00007c 	bl	8340 <set_led_state>
    814c:	e59f01c8 	ldr	r0, [pc, #456]	; 831c <_main+0x2c8>
    8150:	eb000072 	bl	8320 <delay>
    8154:	e3a00001 	mov	r0, #1
    8158:	eb000078 	bl	8340 <set_led_state>
    815c:	e59f01b4 	ldr	r0, [pc, #436]	; 8318 <_main+0x2c4>
    8160:	eb00006e 	bl	8320 <delay>
    8164:	e3a00000 	mov	r0, #0
    8168:	eb000074 	bl	8340 <set_led_state>
    816c:	e59f01a4 	ldr	r0, [pc, #420]	; 8318 <_main+0x2c4>
    8170:	eb00006a 	bl	8320 <delay>
    8174:	e3a00001 	mov	r0, #1
    8178:	eb000070 	bl	8340 <set_led_state>
    817c:	e59f0194 	ldr	r0, [pc, #404]	; 8318 <_main+0x2c4>
    8180:	eb000066 	bl	8320 <delay>
    8184:	e3a00000 	mov	r0, #0
    8188:	eb00006c 	bl	8340 <set_led_state>
    818c:	e59f0188 	ldr	r0, [pc, #392]	; 831c <_main+0x2c8>
    8190:	eb000062 	bl	8320 <delay>
    8194:	e3a00001 	mov	r0, #1
    8198:	eb000068 	bl	8340 <set_led_state>
    819c:	e59f0174 	ldr	r0, [pc, #372]	; 8318 <_main+0x2c4>
    81a0:	eb00005e 	bl	8320 <delay>
    81a4:	e3a00000 	mov	r0, #0
    81a8:	eb000064 	bl	8340 <set_led_state>
    81ac:	e59f0164 	ldr	r0, [pc, #356]	; 8318 <_main+0x2c4>
    81b0:	eb00005a 	bl	8320 <delay>
    81b4:	e3a00001 	mov	r0, #1
    81b8:	eb000060 	bl	8340 <set_led_state>
    81bc:	e59f0154 	ldr	r0, [pc, #340]	; 8318 <_main+0x2c4>
    81c0:	eb000056 	bl	8320 <delay>
    81c4:	e3a00000 	mov	r0, #0
    81c8:	eb00005c 	bl	8340 <set_led_state>
    81cc:	e59f0144 	ldr	r0, [pc, #324]	; 8318 <_main+0x2c4>
    81d0:	eb000052 	bl	8320 <delay>
    81d4:	e3a00001 	mov	r0, #1
    81d8:	eb000058 	bl	8340 <set_led_state>
    81dc:	e59f0134 	ldr	r0, [pc, #308]	; 8318 <_main+0x2c4>
    81e0:	eb00004e 	bl	8320 <delay>
    81e4:	e3a00000 	mov	r0, #0
    81e8:	eb000054 	bl	8340 <set_led_state>
    81ec:	e59f0128 	ldr	r0, [pc, #296]	; 831c <_main+0x2c8>
    81f0:	eb00004a 	bl	8320 <delay>
    81f4:	e3a00001 	mov	r0, #1
    81f8:	eb000050 	bl	8340 <set_led_state>
    81fc:	e59f0114 	ldr	r0, [pc, #276]	; 8318 <_main+0x2c4>
    8200:	eb000046 	bl	8320 <delay>
    8204:	e3a00000 	mov	r0, #0
    8208:	eb00004c 	bl	8340 <set_led_state>
    820c:	e59f0104 	ldr	r0, [pc, #260]	; 8318 <_main+0x2c4>
    8210:	eb000042 	bl	8320 <delay>
    8214:	e3a00001 	mov	r0, #1
    8218:	eb000048 	bl	8340 <set_led_state>
    821c:	e59f00f4 	ldr	r0, [pc, #244]	; 8318 <_main+0x2c4>
    8220:	eb00003e 	bl	8320 <delay>
    8224:	e3a00000 	mov	r0, #0
    8228:	eb000044 	bl	8340 <set_led_state>
    822c:	e59f00e4 	ldr	r0, [pc, #228]	; 8318 <_main+0x2c4>
    8230:	eb00003a 	bl	8320 <delay>
    8234:	e3a00001 	mov	r0, #1
    8238:	eb000040 	bl	8340 <set_led_state>
    823c:	e59f00d4 	ldr	r0, [pc, #212]	; 8318 <_main+0x2c4>
    8240:	eb000036 	bl	8320 <delay>
    8244:	e3a00000 	mov	r0, #0
    8248:	eb00003c 	bl	8340 <set_led_state>
    824c:	e59f00c4 	ldr	r0, [pc, #196]	; 8318 <_main+0x2c4>
    8250:	eb000032 	bl	8320 <delay>
    8254:	e3a00001 	mov	r0, #1
    8258:	eb000038 	bl	8340 <set_led_state>
    825c:	e59f00b4 	ldr	r0, [pc, #180]	; 8318 <_main+0x2c4>
    8260:	eb00002e 	bl	8320 <delay>
    8264:	e3a00000 	mov	r0, #0
    8268:	eb000034 	bl	8340 <set_led_state>
    826c:	e59f00a4 	ldr	r0, [pc, #164]	; 8318 <_main+0x2c4>
    8270:	eb00002a 	bl	8320 <delay>
    8274:	e3a00001 	mov	r0, #1
    8278:	eb000030 	bl	8340 <set_led_state>
    827c:	e59f0094 	ldr	r0, [pc, #148]	; 8318 <_main+0x2c4>
    8280:	eb000026 	bl	8320 <delay>
    8284:	e3a00000 	mov	r0, #0
    8288:	eb00002c 	bl	8340 <set_led_state>
    828c:	e59f0084 	ldr	r0, [pc, #132]	; 8318 <_main+0x2c4>
    8290:	eb000022 	bl	8320 <delay>
    8294:	e3a00001 	mov	r0, #1
    8298:	eb000028 	bl	8340 <set_led_state>
    829c:	e59f0074 	ldr	r0, [pc, #116]	; 8318 <_main+0x2c4>
    82a0:	eb00001e 	bl	8320 <delay>
    82a4:	e3a00000 	mov	r0, #0
    82a8:	eb000024 	bl	8340 <set_led_state>
    82ac:	e59f0064 	ldr	r0, [pc, #100]	; 8318 <_main+0x2c4>
    82b0:	eb00001a 	bl	8320 <delay>
    82b4:	e3a00001 	mov	r0, #1
    82b8:	eb000020 	bl	8340 <set_led_state>
    82bc:	e59f0054 	ldr	r0, [pc, #84]	; 8318 <_main+0x2c4>
    82c0:	eb000016 	bl	8320 <delay>
    82c4:	e3a00000 	mov	r0, #0
    82c8:	eb00001c 	bl	8340 <set_led_state>
    82cc:	e59f0044 	ldr	r0, [pc, #68]	; 8318 <_main+0x2c4>
    82d0:	eb000012 	bl	8320 <delay>
    82d4:	e3a00001 	mov	r0, #1
    82d8:	eb000018 	bl	8340 <set_led_state>
    82dc:	e59f0034 	ldr	r0, [pc, #52]	; 8318 <_main+0x2c4>
    82e0:	eb00000e 	bl	8320 <delay>
    82e4:	e3a00000 	mov	r0, #0
    82e8:	eb000014 	bl	8340 <set_led_state>
    82ec:	e59f0024 	ldr	r0, [pc, #36]	; 8318 <_main+0x2c4>
    82f0:	eb00000a 	bl	8320 <delay>
    82f4:	e3a00001 	mov	r0, #1
    82f8:	eb000010 	bl	8340 <set_led_state>
    82fc:	e59f0014 	ldr	r0, [pc, #20]	; 8318 <_main+0x2c4>
    8300:	eb000006 	bl	8320 <delay>
    8304:	e3a00000 	mov	r0, #0
    8308:	eb00000c 	bl	8340 <set_led_state>
    830c:	e59f0008 	ldr	r0, [pc, #8]	; 831c <_main+0x2c8>
    8310:	eb000002 	bl	8320 <delay>
    8314:	eaffff4e 	b	8054 <_main>
    8318:	00030d40 	.word	0x00030d40
    831c:	001e8480 	.word	0x001e8480

00008320 <delay>:
    8320:	e3a0143f 	mov	r1, #1056964608	; 0x3f000000
    8324:	e3811a03 	orr	r1, r1, #12288	; 0x3000
    8328:	e5912004 	ldr	r2, [r1, #4]

0000832c <delay1$>:
    832c:	e5913004 	ldr	r3, [r1, #4]
    8330:	e0433002 	sub	r3, r3, r2
    8334:	e1530000 	cmp	r3, r0
    8338:	bafffffb 	blt	832c <delay1$>
    833c:	e1a0f00e 	mov	pc, lr

00008340 <set_led_state>:
    8340:	e52de004 	push	{lr}		; (str lr, [sp, #-4]!)
    8344:	e1a01000 	mov	r1, r0
    8348:	e59f0028 	ldr	r0, [pc, #40]	; 8378 <set_led_state+0x38>
    834c:	e3a02000 	mov	r2, #0
    8350:	e5802004 	str	r2, [r0, #4]
    8354:	e5802010 	str	r2, [r0, #16]
    8358:	e3a02082 	mov	r2, #130	; 0x82
    835c:	e5802014 	str	r2, [r0, #20]
    8360:	e5801018 	str	r1, [r0, #24]
    8364:	e2800008 	add	r0, r0, #8
    8368:	ebffff26 	bl	8008 <mailbox_write>
    836c:	e3a00008 	mov	r0, #8
    8370:	ebffff2a 	bl	8020 <mailbox_read>
    8374:	e49df004 	pop	{pc}		; (ldr pc, [sp], #4)
    8378:	00008380 	.word	0x00008380
